; ModuleID = 'source-C-CXX/41/1564.c'
source_filename = "source-C-CXX/41/1564.c"
target datalayout = "e-m:e-p270:32:32-p271:32:32-p272:64:64-i64:64-f80:128-n8:16:32:64-S128"
target triple = "x86_64-pc-linux-gnu"

@.str = private unnamed_addr constant [3 x i8] c"%d\00", align 1
@.str.1 = private unnamed_addr constant [4 x i8] c" %d\00", align 1

; Function Attrs: nofree nounwind sspstrong uwtable
define dso_local i32 @main() local_unnamed_addr #0 {
  %1 = alloca i32, align 4
  %2 = alloca i32, align 4
  %3 = alloca [100000 x i32], align 16
  %4 = bitcast i32* %1 to i8*
  call void @llvm.lifetime.start.p0i8(i64 4, i8* nonnull %4) #4
  %5 = bitcast i32* %2 to i8*
  call void @llvm.lifetime.start.p0i8(i64 4, i8* nonnull %5) #4
  %6 = bitcast [100000 x i32]* %3 to i8*
  call void @llvm.lifetime.start.p0i8(i64 400000, i8* nonnull %6) #4
  %7 = call i32 (i8*, ...) @__isoc99_scanf(i8* getelementptr inbounds ([3 x i8], [3 x i8]* @.str, i64 0, i64 0), i32* nonnull %1)
  %8 = load i32, i32* %1, align 4, !tbaa !5
  %9 = icmp sgt i32 %8, 0
  br i1 %9, label %10, label %18

10:                                               ; preds = %0, %10
  %11 = phi i64 [ %14, %10 ], [ 0, %0 ]
  %12 = getelementptr inbounds [100000 x i32], [100000 x i32]* %3, i64 0, i64 %11
  %13 = call i32 (i8*, ...) @__isoc99_scanf(i8* getelementptr inbounds ([3 x i8], [3 x i8]* @.str, i64 0, i64 0), i32* nonnull %12)
  %14 = add nuw nsw i64 %11, 1
  %15 = load i32, i32* %1, align 4, !tbaa !5
  %16 = sext i32 %15 to i64
  %17 = icmp slt i64 %14, %16
  br i1 %17, label %10, label %18, !llvm.loop !9

18:                                               ; preds = %10, %0
  %19 = call i32 (i8*, ...) @__isoc99_scanf(i8* getelementptr inbounds ([3 x i8], [3 x i8]* @.str, i64 0, i64 0), i32* nonnull %2)
  %20 = load i32, i32* %1, align 4, !tbaa !5
  %21 = load i32, i32* %2, align 4
  %22 = icmp sgt i32 %20, 0
  br i1 %22, label %23, label %167

23:                                               ; preds = %18
  %24 = zext i32 %20 to i64
  %25 = icmp ult i32 %20, 8
  br i1 %25, label %98, label %26

26:                                               ; preds = %23
  %27 = and i64 %24, 4294967288
  %28 = insertelement <4 x i32> poison, i32 %21, i32 0
  %29 = shufflevector <4 x i32> %28, <4 x i32> poison, <4 x i32> zeroinitializer
  %30 = insertelement <4 x i32> poison, i32 %21, i32 0
  %31 = shufflevector <4 x i32> %30, <4 x i32> poison, <4 x i32> zeroinitializer
  %32 = add nsw i64 %27, -8
  %33 = lshr exact i64 %32, 3
  %34 = add nuw nsw i64 %33, 1
  %35 = and i64 %34, 1
  %36 = icmp eq i64 %32, 0
  br i1 %36, label %72, label %37

37:                                               ; preds = %26
  %38 = and i64 %34, 4611686018427387902
  br label %39

39:                                               ; preds = %39, %37
  %40 = phi i64 [ 0, %37 ], [ %69, %39 ]
  %41 = phi <4 x i32> [ zeroinitializer, %37 ], [ %67, %39 ]
  %42 = phi <4 x i32> [ zeroinitializer, %37 ], [ %68, %39 ]
  %43 = phi i64 [ %38, %37 ], [ %70, %39 ]
  %44 = getelementptr inbounds [100000 x i32], [100000 x i32]* %3, i64 0, i64 %40
  %45 = bitcast i32* %44 to <4 x i32>*
  %46 = load <4 x i32>, <4 x i32>* %45, align 16, !tbaa !5
  %47 = getelementptr inbounds i32, i32* %44, i64 4
  %48 = bitcast i32* %47 to <4 x i32>*
  %49 = load <4 x i32>, <4 x i32>* %48, align 16, !tbaa !5
  %50 = icmp eq <4 x i32> %46, %29
  %51 = icmp eq <4 x i32> %49, %31
  %52 = zext <4 x i1> %50 to <4 x i32>
  %53 = zext <4 x i1> %51 to <4 x i32>
  %54 = add <4 x i32> %41, %52
  %55 = add <4 x i32> %42, %53
  %56 = or i64 %40, 8
  %57 = getelementptr inbounds [100000 x i32], [100000 x i32]* %3, i64 0, i64 %56
  %58 = bitcast i32* %57 to <4 x i32>*
  %59 = load <4 x i32>, <4 x i32>* %58, align 16, !tbaa !5
  %60 = getelementptr inbounds i32, i32* %57, i64 4
  %61 = bitcast i32* %60 to <4 x i32>*
  %62 = load <4 x i32>, <4 x i32>* %61, align 16, !tbaa !5
  %63 = icmp eq <4 x i32> %59, %29
  %64 = icmp eq <4 x i32> %62, %31
  %65 = zext <4 x i1> %63 to <4 x i32>
  %66 = zext <4 x i1> %64 to <4 x i32>
  %67 = add <4 x i32> %54, %65
  %68 = add <4 x i32> %55, %66
  %69 = add nuw i64 %40, 16
  %70 = add i64 %43, -2
  %71 = icmp eq i64 %70, 0
  br i1 %71, label %72, label %39, !llvm.loop !11

72:                                               ; preds = %39, %26
  %73 = phi <4 x i32> [ undef, %26 ], [ %67, %39 ]
  %74 = phi <4 x i32> [ undef, %26 ], [ %68, %39 ]
  %75 = phi i64 [ 0, %26 ], [ %69, %39 ]
  %76 = phi <4 x i32> [ zeroinitializer, %26 ], [ %67, %39 ]
  %77 = phi <4 x i32> [ zeroinitializer, %26 ], [ %68, %39 ]
  %78 = icmp eq i64 %35, 0
  br i1 %78, label %92, label %79

79:                                               ; preds = %72
  %80 = getelementptr inbounds [100000 x i32], [100000 x i32]* %3, i64 0, i64 %75
  %81 = getelementptr inbounds i32, i32* %80, i64 4
  %82 = bitcast i32* %81 to <4 x i32>*
  %83 = load <4 x i32>, <4 x i32>* %82, align 16, !tbaa !5
  %84 = icmp eq <4 x i32> %83, %31
  %85 = zext <4 x i1> %84 to <4 x i32>
  %86 = add <4 x i32> %77, %85
  %87 = bitcast i32* %80 to <4 x i32>*
  %88 = load <4 x i32>, <4 x i32>* %87, align 16, !tbaa !5
  %89 = icmp eq <4 x i32> %88, %29
  %90 = zext <4 x i1> %89 to <4 x i32>
  %91 = add <4 x i32> %76, %90
  br label %92

92:                                               ; preds = %72, %79
  %93 = phi <4 x i32> [ %73, %72 ], [ %91, %79 ]
  %94 = phi <4 x i32> [ %74, %72 ], [ %86, %79 ]
  %95 = add <4 x i32> %94, %93
  %96 = call i32 @llvm.vector.reduce.add.v4i32(<4 x i32> %95)
  %97 = icmp eq i64 %27, %24
  br i1 %97, label %101, label %98

98:                                               ; preds = %23, %92
  %99 = phi i64 [ 0, %23 ], [ %27, %92 ]
  %100 = phi i32 [ 0, %23 ], [ %96, %92 ]
  br label %138

101:                                              ; preds = %138, %92
  %102 = phi i32 [ %96, %92 ], [ %145, %138 ]
  br i1 %22, label %103, label %148

103:                                              ; preds = %101
  %104 = and i64 %24, 1
  %105 = icmp eq i32 %20, 1
  %106 = and i64 %24, 4294967294
  %107 = icmp eq i64 %104, 0
  br label %108

108:                                              ; preds = %103, %135
  %109 = phi i32 [ %136, %135 ], [ 0, %103 ]
  br i1 %105, label %125, label %110

110:                                              ; preds = %108, %171
  %111 = phi i64 [ %124, %171 ], [ 0, %108 ]
  %112 = phi i64 [ %172, %171 ], [ %106, %108 ]
  %113 = getelementptr inbounds [100000 x i32], [100000 x i32]* %3, i64 0, i64 %111
  %114 = load i32, i32* %113, align 8, !tbaa !5
  %115 = icmp eq i32 %114, %21
  %116 = or i64 %111, 1
  br i1 %115, label %117, label %120

117:                                              ; preds = %110
  %118 = getelementptr inbounds [100000 x i32], [100000 x i32]* %3, i64 0, i64 %116
  %119 = load i32, i32* %118, align 4, !tbaa !5
  store i32 %119, i32* %113, align 8, !tbaa !5
  store i32 %21, i32* %118, align 4, !tbaa !5
  br label %120

120:                                              ; preds = %110, %117
  %121 = getelementptr inbounds [100000 x i32], [100000 x i32]* %3, i64 0, i64 %116
  %122 = load i32, i32* %121, align 4, !tbaa !5
  %123 = icmp eq i32 %122, %21
  %124 = add nuw nsw i64 %111, 2
  br i1 %123, label %168, label %171

125:                                              ; preds = %171, %108
  %126 = phi i64 [ 0, %108 ], [ %124, %171 ]
  br i1 %107, label %135, label %127

127:                                              ; preds = %125
  %128 = getelementptr inbounds [100000 x i32], [100000 x i32]* %3, i64 0, i64 %126
  %129 = load i32, i32* %128, align 4, !tbaa !5
  %130 = icmp eq i32 %129, %21
  br i1 %130, label %131, label %135

131:                                              ; preds = %127
  %132 = add nuw nsw i64 %126, 1
  %133 = getelementptr inbounds [100000 x i32], [100000 x i32]* %3, i64 0, i64 %132
  %134 = load i32, i32* %133, align 4, !tbaa !5
  store i32 %134, i32* %128, align 4, !tbaa !5
  store i32 %21, i32* %133, align 4, !tbaa !5
  br label %135

135:                                              ; preds = %131, %127, %125
  %136 = add nuw nsw i32 %109, 1
  %137 = icmp eq i32 %136, 100
  br i1 %137, label %148, label %108, !llvm.loop !13

138:                                              ; preds = %98, %138
  %139 = phi i64 [ %146, %138 ], [ %99, %98 ]
  %140 = phi i32 [ %145, %138 ], [ %100, %98 ]
  %141 = getelementptr inbounds [100000 x i32], [100000 x i32]* %3, i64 0, i64 %139
  %142 = load i32, i32* %141, align 4, !tbaa !5
  %143 = icmp eq i32 %142, %21
  %144 = zext i1 %143 to i32
  %145 = add nuw nsw i32 %140, %144
  %146 = add nuw nsw i64 %139, 1
  %147 = icmp eq i64 %146, %24
  br i1 %147, label %101, label %138, !llvm.loop !14

148:                                              ; preds = %135, %101
  %149 = icmp sgt i32 %20, %102
  br i1 %149, label %150, label %167

150:                                              ; preds = %148
  %151 = getelementptr inbounds [100000 x i32], [100000 x i32]* %3, i64 0, i64 0
  %152 = load i32, i32* %151, align 16, !tbaa !5
  %153 = call i32 (i8*, ...) @printf(i8* nonnull dereferenceable(1) getelementptr inbounds ([3 x i8], [3 x i8]* @.str, i64 0, i64 0), i32 %152)
  %154 = load i32, i32* %1, align 4, !tbaa !5
  %155 = sub nsw i32 %154, %102
  %156 = icmp sgt i32 %155, 1
  br i1 %156, label %157, label %167

157:                                              ; preds = %150, %157
  %158 = phi i64 [ %163, %157 ], [ 1, %150 ]
  %159 = getelementptr inbounds [100000 x i32], [100000 x i32]* %3, i64 0, i64 %158
  %160 = load i32, i32* %159, align 4, !tbaa !5
  %161 = call i32 (i8*, ...) @printf(i8* nonnull dereferenceable(1) getelementptr inbounds ([4 x i8], [4 x i8]* @.str.1, i64 0, i64 0), i32 %160)
  %162 = load i32, i32* %1, align 4, !tbaa !5
  %163 = add nuw nsw i64 %158, 1
  %164 = sub nsw i32 %162, %102
  %165 = sext i32 %164 to i64
  %166 = icmp slt i64 %163, %165
  br i1 %166, label %157, label %167, !llvm.loop !16

167:                                              ; preds = %157, %18, %150, %148
  call void @llvm.lifetime.end.p0i8(i64 400000, i8* nonnull %6) #4
  call void @llvm.lifetime.end.p0i8(i64 4, i8* nonnull %5) #4
  call void @llvm.lifetime.end.p0i8(i64 4, i8* nonnull %4) #4
  ret i32 0

168:                                              ; preds = %120
  %169 = getelementptr inbounds [100000 x i32], [100000 x i32]* %3, i64 0, i64 %124
  %170 = load i32, i32* %169, align 8, !tbaa !5
  store i32 %170, i32* %121, align 4, !tbaa !5
  store i32 %21, i32* %169, align 8, !tbaa !5
  br label %171

171:                                              ; preds = %168, %120
  %172 = add i64 %112, -2
  %173 = icmp eq i64 %172, 0
  br i1 %173, label %125, label %110, !llvm.loop !18
}

; Function Attrs: argmemonly mustprogress nofree nosync nounwind willreturn
declare void @llvm.lifetime.start.p0i8(i64 immarg, i8* nocapture) #1

; Function Attrs: nofree nounwind
declare noundef i32 @__isoc99_scanf(i8* nocapture noundef readonly, ...) local_unnamed_addr #2

; Function Attrs: nofree nounwind
declare noundef i32 @printf(i8* nocapture noundef readonly, ...) local_unnamed_addr #2

; Function Attrs: argmemonly mustprogress nofree nosync nounwind willreturn
declare void @llvm.lifetime.end.p0i8(i64 immarg, i8* nocapture) #1

; Function Attrs: nofree nosync nounwind readnone willreturn
declare i32 @llvm.vector.reduce.add.v4i32(<4 x i32>) #3


!llvm.module.flags = !{!0, !1, !2, !3}
!llvm.ident = !{!4}

!0 = !{i32 1, !"wchar_size", i32 4}
!1 = !{i32 7, !"PIC Level", i32 2}
!2 = !{i32 7, !"PIE Level", i32 2}
!3 = !{i32 7, !"uwtable", i32 1}
!4 = !{!"clang version 13.0.0"}
!5 = !{!6, !6, i64 0}
!6 = !{!"int", !7, i64 0}
!7 = !{!"omnipotent char", !8, i64 0}
!8 = !{!"Simple C/C++ TBAA"}
!9 = distinct !{!9, !10}
!10 = !{!"llvm.loop.mustprogress"}
!11 = distinct !{!11, !10, !12}
!12 = !{!"llvm.loop.isvectorized", i32 1}
!13 = distinct !{!13, !10}
!14 = distinct !{!14, !10, !15, !12}
!15 = !{!"llvm.loop.unroll.runtime.disable"}
!16 = distinct !{!16, !10, !17}
!17 = !{!"llvm.loop.peeled.count", i32 1}
!18 = distinct !{!18, !10}
